; ModuleID = '24/2221.c'
source_filename = "24/2221.c"
target datalayout = "e-m:e-p270:32:32-p271:32:32-p272:64:64-i64:64-f80:128-n8:16:32:64-S128"
target triple = "x86_64-pc-linux-gnu"

@.str = private unnamed_addr constant [3 x i8] c"%c\00", align 1
@.str.1 = private unnamed_addr constant [2 x i8] c"\0A\00", align 1

; Function Attrs: noinline nounwind uwtable
define dso_local void @main() #0 {
  %1 = alloca [10000 x i8], align 16
  %2 = alloca i32, align 4
  %3 = alloca i32, align 4
  %4 = alloca i32, align 4
  %5 = alloca i32, align 4
  %6 = alloca i32, align 4
  store i32 0, i32* %4, align 4
  store i32 0, i32* %5, align 4
  %7 = getelementptr inbounds [10000 x i8], [10000 x i8]* %1, i64 0, i64 0
  %8 = call i32 (i8*, ...) bitcast (i32 (...)* @gets to i32 (i8*, ...)*)(i8* %7)
  %9 = getelementptr inbounds [10000 x i8], [10000 x i8]* %1, i64 0, i64 0
  %10 = call i64 @strlen(i8* %9) #3
  %11 = trunc i64 %10 to i32
  store i32 %11, i32* %6, align 4
  store i32 0, i32* %2, align 4
  br label %12

12:                                               ; preds = %120, %0
  %13 = load i32, i32* %2, align 4
  %14 = load i32, i32* %6, align 4
  %15 = sub nsw i32 %14, 1
  %16 = icmp sle i32 %13, %15
  br i1 %16, label %17, label %123

17:                                               ; preds = %12
  %18 = load i32, i32* %2, align 4
  %19 = sext i32 %18 to i64
  %20 = getelementptr inbounds [10000 x i8], [10000 x i8]* %1, i64 0, i64 %19
  %21 = load i8, i8* %20, align 1
  %22 = sext i8 %21 to i32
  %23 = icmp sge i32 %22, 97
  br i1 %23, label %24, label %31

24:                                               ; preds = %17
  %25 = load i32, i32* %2, align 4
  %26 = sext i32 %25 to i64
  %27 = getelementptr inbounds [10000 x i8], [10000 x i8]* %1, i64 0, i64 %26
  %28 = load i8, i8* %27, align 1
  %29 = sext i8 %28 to i32
  %30 = icmp sle i32 %29, 122
  br i1 %30, label %45, label %31

31:                                               ; preds = %24, %17
  %32 = load i32, i32* %2, align 4
  %33 = sext i32 %32 to i64
  %34 = getelementptr inbounds [10000 x i8], [10000 x i8]* %1, i64 0, i64 %33
  %35 = load i8, i8* %34, align 1
  %36 = sext i8 %35 to i32
  %37 = icmp sge i32 %36, 65
  br i1 %37, label %38, label %119

38:                                               ; preds = %31
  %39 = load i32, i32* %2, align 4
  %40 = sext i32 %39 to i64
  %41 = getelementptr inbounds [10000 x i8], [10000 x i8]* %1, i64 0, i64 %40
  %42 = load i8, i8* %41, align 1
  %43 = sext i8 %42 to i32
  %44 = icmp sle i32 %43, 90
  br i1 %44, label %45, label %119

45:                                               ; preds = %38, %24
  %46 = load i32, i32* %2, align 4
  store i32 %46, i32* %3, align 4
  br label %47

47:                                               ; preds = %115, %45
  %48 = load i32, i32* %3, align 4
  %49 = load i32, i32* %6, align 4
  %50 = sub nsw i32 %49, 1
  %51 = icmp sle i32 %48, %50
  br i1 %51, label %52, label %118

52:                                               ; preds = %47
  %53 = load i32, i32* %3, align 4
  %54 = sext i32 %53 to i64
  %55 = getelementptr inbounds [10000 x i8], [10000 x i8]* %1, i64 0, i64 %54
  %56 = load i8, i8* %55, align 1
  %57 = sext i8 %56 to i32
  %58 = icmp sge i32 %57, 97
  br i1 %58, label %59, label %66

59:                                               ; preds = %52
  %60 = load i32, i32* %3, align 4
  %61 = sext i32 %60 to i64
  %62 = getelementptr inbounds [10000 x i8], [10000 x i8]* %1, i64 0, i64 %61
  %63 = load i8, i8* %62, align 1
  %64 = sext i8 %63 to i32
  %65 = icmp sle i32 %64, 122
  br i1 %65, label %80, label %66

66:                                               ; preds = %59, %52
  %67 = load i32, i32* %3, align 4
  %68 = sext i32 %67 to i64
  %69 = getelementptr inbounds [10000 x i8], [10000 x i8]* %1, i64 0, i64 %68
  %70 = load i8, i8* %69, align 1
  %71 = sext i8 %70 to i32
  %72 = icmp sge i32 %71, 65
  br i1 %72, label %73, label %101

73:                                               ; preds = %66
  %74 = load i32, i32* %3, align 4
  %75 = sext i32 %74 to i64
  %76 = getelementptr inbounds [10000 x i8], [10000 x i8]* %1, i64 0, i64 %75
  %77 = load i8, i8* %76, align 1
  %78 = sext i8 %77 to i32
  %79 = icmp sle i32 %78, 90
  br i1 %79, label %80, label %101

80:                                               ; preds = %73, %59
  %81 = load i32, i32* %3, align 4
  %82 = load i32, i32* %6, align 4
  %83 = sub nsw i32 %82, 1
  %84 = icmp ne i32 %81, %83
  br i1 %84, label %85, label %86

85:                                               ; preds = %80
  br label %115

86:                                               ; preds = %80
  %87 = load i32, i32* %3, align 4
  %88 = load i32, i32* %2, align 4
  %89 = sub nsw i32 %87, %88
  %90 = add nsw i32 %89, 1
  %91 = load i32, i32* %4, align 4
  %92 = load i32, i32* %5, align 4
  %93 = sub nsw i32 %91, %92
  %94 = icmp sgt i32 %90, %93
  br i1 %94, label %95, label %99

95:                                               ; preds = %86
  %96 = load i32, i32* %3, align 4
  %97 = add nsw i32 %96, 1
  store i32 %97, i32* %4, align 4
  %98 = load i32, i32* %2, align 4
  store i32 %98, i32* %5, align 4
  br label %99

99:                                               ; preds = %95, %86
  %100 = load i32, i32* %3, align 4
  store i32 %100, i32* %2, align 4
  br label %118

101:                                              ; preds = %73, %66
  %102 = load i32, i32* %3, align 4
  %103 = load i32, i32* %2, align 4
  %104 = sub nsw i32 %102, %103
  %105 = load i32, i32* %4, align 4
  %106 = load i32, i32* %5, align 4
  %107 = sub nsw i32 %105, %106
  %108 = icmp sgt i32 %104, %107
  br i1 %108, label %109, label %112

109:                                              ; preds = %101
  %110 = load i32, i32* %3, align 4
  store i32 %110, i32* %4, align 4
  %111 = load i32, i32* %2, align 4
  store i32 %111, i32* %5, align 4
  br label %112

112:                                              ; preds = %109, %101
  %113 = load i32, i32* %3, align 4
  %114 = sub nsw i32 %113, 1
  store i32 %114, i32* %2, align 4
  br label %118

115:                                              ; preds = %85
  %116 = load i32, i32* %3, align 4
  %117 = add nsw i32 %116, 1
  store i32 %117, i32* %3, align 4
  br label %47

118:                                              ; preds = %112, %99, %47
  br label %119

119:                                              ; preds = %118, %38, %31
  br label %120

120:                                              ; preds = %119
  %121 = load i32, i32* %2, align 4
  %122 = add nsw i32 %121, 1
  store i32 %122, i32* %2, align 4
  br label %12

123:                                              ; preds = %12
  %124 = load i32, i32* %5, align 4
  store i32 %124, i32* %2, align 4
  br label %125

125:                                              ; preds = %137, %123
  %126 = load i32, i32* %2, align 4
  %127 = load i32, i32* %4, align 4
  %128 = sub nsw i32 %127, 1
  %129 = icmp sle i32 %126, %128
  br i1 %129, label %130, label %140

130:                                              ; preds = %125
  %131 = load i32, i32* %2, align 4
  %132 = sext i32 %131 to i64
  %133 = getelementptr inbounds [10000 x i8], [10000 x i8]* %1, i64 0, i64 %132
  %134 = load i8, i8* %133, align 1
  %135 = sext i8 %134 to i32
  %136 = call i32 (i8*, ...) @printf(i8* getelementptr inbounds ([3 x i8], [3 x i8]* @.str, i64 0, i64 0), i32 %135)
  br label %137

137:                                              ; preds = %130
  %138 = load i32, i32* %2, align 4
  %139 = add nsw i32 %138, 1
  store i32 %139, i32* %2, align 4
  br label %125

140:                                              ; preds = %125
  %141 = call i32 (i8*, ...) @printf(i8* getelementptr inbounds ([2 x i8], [2 x i8]* @.str.1, i64 0, i64 0))
  store i32 100, i32* %4, align 4
  store i32 0, i32* %5, align 4
  store i32 0, i32* %2, align 4
  br label %142

142:                                              ; preds = %250, %140
  %143 = load i32, i32* %2, align 4
  %144 = load i32, i32* %6, align 4
  %145 = sub nsw i32 %144, 1
  %146 = icmp sle i32 %143, %145
  br i1 %146, label %147, label %253

147:                                              ; preds = %142
  %148 = load i32, i32* %2, align 4
  %149 = sext i32 %148 to i64
  %150 = getelementptr inbounds [10000 x i8], [10000 x i8]* %1, i64 0, i64 %149
  %151 = load i8, i8* %150, align 1
  %152 = sext i8 %151 to i32
  %153 = icmp sge i32 %152, 97
  br i1 %153, label %154, label %161

154:                                              ; preds = %147
  %155 = load i32, i32* %2, align 4
  %156 = sext i32 %155 to i64
  %157 = getelementptr inbounds [10000 x i8], [10000 x i8]* %1, i64 0, i64 %156
  %158 = load i8, i8* %157, align 1
  %159 = sext i8 %158 to i32
  %160 = icmp sle i32 %159, 122
  br i1 %160, label %175, label %161

161:                                              ; preds = %154, %147
  %162 = load i32, i32* %2, align 4
  %163 = sext i32 %162 to i64
  %164 = getelementptr inbounds [10000 x i8], [10000 x i8]* %1, i64 0, i64 %163
  %165 = load i8, i8* %164, align 1
  %166 = sext i8 %165 to i32
  %167 = icmp sge i32 %166, 65
  br i1 %167, label %168, label %249

168:                                              ; preds = %161
  %169 = load i32, i32* %2, align 4
  %170 = sext i32 %169 to i64
  %171 = getelementptr inbounds [10000 x i8], [10000 x i8]* %1, i64 0, i64 %170
  %172 = load i8, i8* %171, align 1
  %173 = sext i8 %172 to i32
  %174 = icmp sle i32 %173, 90
  br i1 %174, label %175, label %249

175:                                              ; preds = %168, %154
  %176 = load i32, i32* %2, align 4
  store i32 %176, i32* %3, align 4
  br label %177

177:                                              ; preds = %245, %175
  %178 = load i32, i32* %3, align 4
  %179 = load i32, i32* %6, align 4
  %180 = sub nsw i32 %179, 1
  %181 = icmp sle i32 %178, %180
  br i1 %181, label %182, label %248

182:                                              ; preds = %177
  %183 = load i32, i32* %3, align 4
  %184 = sext i32 %183 to i64
  %185 = getelementptr inbounds [10000 x i8], [10000 x i8]* %1, i64 0, i64 %184
  %186 = load i8, i8* %185, align 1
  %187 = sext i8 %186 to i32
  %188 = icmp sge i32 %187, 97
  br i1 %188, label %189, label %196

189:                                              ; preds = %182
  %190 = load i32, i32* %3, align 4
  %191 = sext i32 %190 to i64
  %192 = getelementptr inbounds [10000 x i8], [10000 x i8]* %1, i64 0, i64 %191
  %193 = load i8, i8* %192, align 1
  %194 = sext i8 %193 to i32
  %195 = icmp sle i32 %194, 122
  br i1 %195, label %210, label %196

196:                                              ; preds = %189, %182
  %197 = load i32, i32* %3, align 4
  %198 = sext i32 %197 to i64
  %199 = getelementptr inbounds [10000 x i8], [10000 x i8]* %1, i64 0, i64 %198
  %200 = load i8, i8* %199, align 1
  %201 = sext i8 %200 to i32
  %202 = icmp sge i32 %201, 65
  br i1 %202, label %203, label %231

203:                                              ; preds = %196
  %204 = load i32, i32* %3, align 4
  %205 = sext i32 %204 to i64
  %206 = getelementptr inbounds [10000 x i8], [10000 x i8]* %1, i64 0, i64 %205
  %207 = load i8, i8* %206, align 1
  %208 = sext i8 %207 to i32
  %209 = icmp sle i32 %208, 90
  br i1 %209, label %210, label %231

210:                                              ; preds = %203, %189
  %211 = load i32, i32* %3, align 4
  %212 = load i32, i32* %6, align 4
  %213 = sub nsw i32 %212, 1
  %214 = icmp ne i32 %211, %213
  br i1 %214, label %215, label %216

215:                                              ; preds = %210
  br label %245

216:                                              ; preds = %210
  %217 = load i32, i32* %3, align 4
  %218 = load i32, i32* %2, align 4
  %219 = sub nsw i32 %217, %218
  %220 = add nsw i32 %219, 1
  %221 = load i32, i32* %4, align 4
  %222 = load i32, i32* %5, align 4
  %223 = sub nsw i32 %221, %222
  %224 = icmp slt i32 %220, %223
  br i1 %224, label %225, label %229

225:                                              ; preds = %216
  %226 = load i32, i32* %3, align 4
  %227 = add nsw i32 %226, 1
  store i32 %227, i32* %4, align 4
  %228 = load i32, i32* %2, align 4
  store i32 %228, i32* %5, align 4
  br label %229

229:                                              ; preds = %225, %216
  %230 = load i32, i32* %3, align 4
  store i32 %230, i32* %2, align 4
  br label %248

231:                                              ; preds = %203, %196
  %232 = load i32, i32* %3, align 4
  %233 = load i32, i32* %2, align 4
  %234 = sub nsw i32 %232, %233
  %235 = load i32, i32* %4, align 4
  %236 = load i32, i32* %5, align 4
  %237 = sub nsw i32 %235, %236
  %238 = icmp slt i32 %234, %237
  br i1 %238, label %239, label %242

239:                                              ; preds = %231
  %240 = load i32, i32* %3, align 4
  store i32 %240, i32* %4, align 4
  %241 = load i32, i32* %2, align 4
  store i32 %241, i32* %5, align 4
  br label %242

242:                                              ; preds = %239, %231
  %243 = load i32, i32* %3, align 4
  %244 = sub nsw i32 %243, 1
  store i32 %244, i32* %2, align 4
  br label %248

245:                                              ; preds = %215
  %246 = load i32, i32* %3, align 4
  %247 = add nsw i32 %246, 1
  store i32 %247, i32* %3, align 4
  br label %177

248:                                              ; preds = %242, %229, %177
  br label %249

249:                                              ; preds = %248, %168, %161
  br label %250

250:                                              ; preds = %249
  %251 = load i32, i32* %2, align 4
  %252 = add nsw i32 %251, 1
  store i32 %252, i32* %2, align 4
  br label %142

253:                                              ; preds = %142
  %254 = load i32, i32* %5, align 4
  store i32 %254, i32* %2, align 4
  br label %255

255:                                              ; preds = %267, %253
  %256 = load i32, i32* %2, align 4
  %257 = load i32, i32* %4, align 4
  %258 = sub nsw i32 %257, 1
  %259 = icmp sle i32 %256, %258
  br i1 %259, label %260, label %270

260:                                              ; preds = %255
  %261 = load i32, i32* %2, align 4
  %262 = sext i32 %261 to i64
  %263 = getelementptr inbounds [10000 x i8], [10000 x i8]* %1, i64 0, i64 %262
  %264 = load i8, i8* %263, align 1
  %265 = sext i8 %264 to i32
  %266 = call i32 (i8*, ...) @printf(i8* getelementptr inbounds ([3 x i8], [3 x i8]* @.str, i64 0, i64 0), i32 %265)
  br label %267

267:                                              ; preds = %260
  %268 = load i32, i32* %2, align 4
  %269 = add nsw i32 %268, 1
  store i32 %269, i32* %2, align 4
  br label %255

270:                                              ; preds = %255
  %271 = call i32 (i8*, ...) @printf(i8* getelementptr inbounds ([2 x i8], [2 x i8]* @.str.1, i64 0, i64 0))
  ret void
}

declare dso_local i32 @gets(...) #1

; Function Attrs: nounwind readonly
declare dso_local i64 @strlen(i8*) #2

declare dso_local i32 @printf(i8*, ...) #1


!llvm.module.flags = !{!0}
!llvm.ident = !{!1}

!0 = !{i32 1, !"wchar_size", i32 4}
!1 = !{!"clang version 10.0.0-4ubuntu1 "}
